; Function Attrs: nounwind uwtable
define hidden void @dfvm_insn_replace_no_op(ptr noundef captures(none) initializes((4, 8)) %0) local_unnamed_addr #2 {
  %2 = getelementptr inbounds nuw i8, ptr %0, i64 8
  %3 = load ptr, ptr %2, align 8
  %.not = icmp eq ptr %3, null
  br i1 %.not, label %20, label %4

4:                                                ; preds = %1
  %5 = getelementptr inbounds nuw i8, ptr %3, i64 16
  %6 = load i32, ptr %5, align 8
  %7 = add i32 %6, -1
  store i32 %7, ptr %5, align 8
  %8 = icmp sgt i32 %7, 0
  br i1 %8, label %dfvm_value_unref.exit, label %9

9:                                                ; preds = %4
  %10 = load i32, ptr %3, align 8
  switch i32 %10, label %dfvm_value_free.exit.i [
    i32 1, label %11
    i32 7, label %14
    i32 9, label %17
  ]

11:                                               ; preds = %9
  %12 = getelementptr inbounds nuw i8, ptr %3, i64 8
  %13 = load ptr, ptr %12, align 8
  tail call void @g_ptr_array_unref(ptr noundef %13) #11
  br label %dfvm_value_free.exit.i

14:                                               ; preds = %9
  %15 = getelementptr inbounds nuw i8, ptr %3, i64 8
  %16 = load ptr, ptr %15, align 8
  tail call void @drange_free(ptr noundef %16) #11
  br label %dfvm_value_free.exit.i

17:                                               ; preds = %9
  %18 = getelementptr inbounds nuw i8, ptr %3, i64 8
  %19 = load ptr, ptr %18, align 8
  tail call void @ws_regex_free(ptr noundef %19) #11
  br label %dfvm_value_free.exit.i

dfvm_value_free.exit.i:                           ; preds = %17, %14, %11, %9
  tail call void @g_free(ptr noundef nonnull %3) #11
  br label %dfvm_value_unref.exit

dfvm_value_unref.exit:                            ; preds = %4, %dfvm_value_free.exit.i
  store ptr null, ptr %2, align 8
  br label %20

20:                                               ; preds = %dfvm_value_unref.exit, %1
  %21 = getelementptr inbounds nuw i8, ptr %0, i64 16
  %22 = load ptr, ptr %21, align 8
  %.not12 = icmp eq ptr %22, null
  br i1 %.not12, label %39, label %23

23:                                               ; preds = %20
  %24 = getelementptr inbounds nuw i8, ptr %22, i64 16
  %25 = load i32, ptr %24, align 8
  %26 = add i32 %25, -1
  store i32 %26, ptr %24, align 8
  %27 = icmp sgt i32 %26, 0
  br i1 %27, label %dfvm_value_unref.exit15, label %28

28:                                               ; preds = %23
  %29 = load i32, ptr %22, align 8
  switch i32 %29, label %dfvm_value_free.exit.i14 [
    i32 1, label %30
    i32 7, label %33
    i32 9, label %36
  ]

30:                                               ; preds = %28
  %31 = getelementptr inbounds nuw i8, ptr %22, i64 8
  %32 = load ptr, ptr %31, align 8
  tail call void @g_ptr_array_unref(ptr noundef %32) #11
  br label %dfvm_value_free.exit.i14

33:                                               ; preds = %28
  %34 = getelementptr inbounds nuw i8, ptr %22, i64 8
  %35 = load ptr, ptr %34, align 8
  tail call void @drange_free(ptr noundef %35) #11
  br label %dfvm_value_free.exit.i14

36:                                               ; preds = %28
  %37 = getelementptr inbounds nuw i8, ptr %22, i64 8
  %38 = load ptr, ptr %37, align 8
  tail call void @ws_regex_free(ptr noundef %38) #11
  br label %dfvm_value_free.exit.i14

dfvm_value_free.exit.i14:                         ; preds = %36, %33, %30, %28
  tail call void @g_free(ptr noundef nonnull %22) #11
  br label %dfvm_value_unref.exit15

dfvm_value_unref.exit15:                          ; preds = %23, %dfvm_value_free.exit.i14
  store ptr null, ptr %21, align 8
  br label %39

39:                                               ; preds = %dfvm_value_unref.exit15, %20
  %40 = getelementptr inbounds nuw i8, ptr %0, i64 24
  %41 = load ptr, ptr %40, align 8
  %.not13 = icmp eq ptr %41, null
  br i1 %.not13, label %58, label %42

42:                                               ; preds = %39
  %43 = getelementptr inbounds nuw i8, ptr %41, i64 16
  %44 = load i32, ptr %43, align 8
  %45 = add i32 %44, -1
  store i32 %45, ptr %43, align 8
  %46 = icmp sgt i32 %45, 0
  br i1 %46, label %dfvm_value_unref.exit17, label %47

47:                                               ; preds = %42
  %48 = load i32, ptr %41, align 8
  switch i32 %48, label %dfvm_value_free.exit.i16 [
    i32 1, label %49
    i32 7, label %52
    i32 9, label %55
  ]

49:                                               ; preds = %47
  %50 = getelementptr inbounds nuw i8, ptr %41, i64 8
  %51 = load ptr, ptr %50, align 8
  tail call void @g_ptr_array_unref(ptr noundef %51) #11
  br label %dfvm_value_free.exit.i16

52:                                               ; preds = %47
  %53 = getelementptr inbounds nuw i8, ptr %41, i64 8
  %54 = load ptr, ptr %53, align 8
  tail call void @drange_free(ptr noundef %54) #11
  br label %dfvm_value_free.exit.i16

55:                                               ; preds = %47
  %56 = getelementptr inbounds nuw i8, ptr %41, i64 8
  %57 = load ptr, ptr %56, align 8
  tail call void @ws_regex_free(ptr noundef %57) #11
  br label %dfvm_value_free.exit.i16

dfvm_value_free.exit.i16:                         ; preds = %55, %52, %49, %47
  tail call void @g_free(ptr noundef nonnull %41) #11
  br label %dfvm_value_unref.exit17

dfvm_value_unref.exit17:                          ; preds = %42, %dfvm_value_free.exit.i16
  store ptr null, ptr %40, align 8
  br label %58

58:                                               ; preds = %dfvm_value_unref.exit17, %39
  %59 = getelementptr inbounds nuw i8, ptr %0, i64 4
  store i32 49, ptr %59, align 4
  ret void
}